; Function Attrs: mustprogress uwtable
define void @_ZN6icu_7739FormattedValueFieldPositionIteratorImpl12appendStringENS_13UnicodeStringER10UErrorCode(ptr noundef nonnull align 8 dereferenceable(104) %0, ptr noundef %1, ptr noundef nonnull align 4 captures(none) dereferenceable(4) %2) local_unnamed_addr #1 align 2 {
  %4 = load i32, ptr %2, align 4, !tbaa !13
  %5 = icmp slt i32 %4, 1
  br i1 %5, label %6, label %20

6:                                                ; preds = %3
  %7 = getelementptr inbounds nuw i8, ptr %0, i64 8
  %8 = getelementptr inbounds nuw i8, ptr %1, i64 8
  %9 = load i16, ptr %8, align 8, !tbaa !17
  %10 = icmp slt i16 %9, 0
  %11 = ashr i16 %9, 5
  %12 = sext i16 %11 to i32
  %13 = getelementptr inbounds nuw i8, ptr %1, i64 12
  %14 = load i32, ptr %13, align 4
  %15 = select i1 %10, i32 %14, i32 %12
  %16 = tail call noundef nonnull align 8 dereferenceable(64) ptr @_ZN6icu_7713UnicodeString8doAppendERKS0_ii(ptr noundef nonnull align 8 dereferenceable(64) %7, ptr noundef nonnull align 8 dereferenceable(64) %1, i32 noundef 0, i32 noundef %15)
  %17 = tail call noundef ptr @_ZN6icu_7713UnicodeString19getTerminatedBufferEv(ptr noundef nonnull align 8 dereferenceable(64) %7)
  %18 = icmp eq ptr %17, null
  br i1 %18, label %19, label %20

19:                                               ; preds = %6
  store i32 7, ptr %2, align 4, !tbaa !13
  br label %20

20:                                               ; preds = %3, %19, %6
  ret void
}